; Function Attrs: mustprogress nounwind uwtable
define hidden void @_ZN20JvmtiDeferredUpdatesD2Ev(ptr noundef nonnull align 8 dereferenceable(32) %0) unnamed_addr #0 align 2 {
  %2 = getelementptr inbounds i8, ptr %0, i64 8
  %3 = load i32, ptr %2, align 8
  %.not2 = icmp eq i32 %3, 0
  br i1 %.not2, label %._crit_edge, label %.lr.ph

.lr.ph:                                           ; preds = %1
  %4 = getelementptr inbounds i8, ptr %0, i64 16
  br label %5

5:                                                ; preds = %.lr.ph, %14
  %6 = phi i32 [ %3, %.lr.ph ], [ %15, %14 ]
  %7 = load ptr, ptr %4, align 8
  %8 = add nsw i32 %6, -1
  store i32 %8, ptr %2, align 8
  %9 = sext i32 %8 to i64
  %10 = getelementptr inbounds ptr, ptr %7, i64 %9
  %11 = load ptr, ptr %10, align 8
  %12 = icmp eq ptr %11, null
  br i1 %12, label %14, label %13

13:                                               ; preds = %5
  tail call void @_ZN29jvmtiDeferredLocalVariableSetD1Ev(ptr noundef nonnull align 8 dereferenceable(41) %11) #3
  tail call void @_Z8FreeHeapPv(ptr noundef nonnull %11) #3
  %.pre = load i32, ptr %2, align 8
  br label %14

14:                                               ; preds = %13, %5
  %15 = phi i32 [ %.pre, %13 ], [ %8, %5 ]
  %.not = icmp eq i32 %15, 0
  br i1 %.not, label %._crit_edge, label %5, !llvm.loop !6

._crit_edge:                                      ; preds = %14, %1
  %16 = getelementptr inbounds i8, ptr %0, i64 24
  %17 = load i64, ptr %16, align 8
  %18 = and i64 %17, 1
  %.not.i = icmp eq i64 %18, 0
  br i1 %.not.i, label %_ZN13GrowableArrayIP29jvmtiDeferredLocalVariableSetED2Ev.exit, label %19

19:                                               ; preds = %._crit_edge
  store i32 0, ptr %2, align 8
  tail call void @_ZN26GrowableArrayWithAllocatorIP29jvmtiDeferredLocalVariableSet13GrowableArrayIS1_EE13shrink_to_fitEv(ptr noundef nonnull align 8 dereferenceable(16) %2)
  br label %_ZN13GrowableArrayIP29jvmtiDeferredLocalVariableSetED2Ev.exit

_ZN13GrowableArrayIP29jvmtiDeferredLocalVariableSetED2Ev.exit: ; preds = %._crit_edge, %19
  ret void
}